target datalayout = "e-m:e-p270:32:32-p271:32:32-p272:64:64-i64:64-i128:128-f80:128-n8:16:32:64-S128"
target triple = "x86_64-pc-linux-gnu"

%struct.VariableStatData = type { ptr, ptr, ptr, ptr, i32, i32, i32, i8, i8 }
%struct.FmgrInfo = type { ptr, i32, i16, i8, i8, i8, ptr, ptr, ptr }
%struct.RelOptInfo = type { i32, i32, ptr, double, i8, i8, i8, ptr, ptr, ptr, ptr, ptr, ptr, ptr, ptr, ptr, ptr, i32, i32, i32, i16, i16, ptr, ptr, ptr, ptr, ptr, ptr, ptr, ptr, i32, double, double, ptr, ptr, ptr, i32, i32, i32, i32, i8, ptr, ptr, ptr, ptr, ptr, %struct.QualCost, i32, ptr, i8, i8, ptr, ptr, ptr, ptr, i32, ptr, i8, ptr, ptr, ptr, ptr, ptr, ptr }
%struct.QualCost = type { double, double }
%struct.ForEachState = type { ptr, i32 }
%struct.ScanKeyData = type { i32, i16, i16, i32, i32, %struct.FmgrInfo, i64 }
%struct.PlannerInfo = type { i32, ptr, ptr, i32, ptr, ptr, ptr, ptr, i32, ptr, ptr, ptr, ptr, ptr, ptr, ptr, ptr, i32, ptr, ptr, ptr, ptr, ptr, i8, ptr, ptr, ptr, ptr, ptr, i32, ptr, ptr, ptr, ptr, ptr, ptr, ptr, i32, ptr, ptr, ptr, i32, ptr, ptr, ptr, ptr, ptr, ptr, [8 x ptr], [8 x ptr], ptr, ptr, ptr, ptr, ptr, ptr, ptr, double, double, double, i32, i8, i8, i8, i8, i8, i8, i8, i32, ptr, ptr, i32, i8, i8, i32, ptr, ptr, ptr, ptr, ptr, ptr, i8, ptr }
%struct.RangeTblEntry = type { i32, ptr, ptr, i32, i32, i8, i8, i32, i32, ptr, ptr, i8, i32, i32, ptr, ptr, ptr, ptr, ptr, i8, ptr, ptr, ptr, i32, i8, ptr, ptr, ptr, ptr, double, ptr, i8, i8, ptr }
%struct.List = type { i32, i32, i32, ptr, [0 x %union.ListCell] }
%union.ListCell = type { ptr }
%struct.IndexOptInfo = type { i32, i32, i32, ptr, i32, double, i32, i32, i32, ptr, ptr, ptr, ptr, ptr, ptr, ptr, ptr, ptr, i32, ptr, ptr, ptr, ptr, i8, i8, i8, i8, i8, i8, i8, i8, i8, i8, i8, i8, i8, ptr }

@CurrentMemoryContext = external global ptr, align 8
@.str.16 = private unnamed_addr constant [36 x i8] c"get_actual_variable_range workspace\00", align 1

; Function Attrs: inlinehint nounwind uwtable
define internal ptr @MemoryContextSwitchTo(ptr noundef %0) #1 {
  %2 = alloca ptr, align 8
  %3 = alloca ptr, align 8
  store ptr %0, ptr %2, align 8
  call void @llvm.lifetime.start.p0(i64 8, ptr %3) #10
  %4 = load ptr, ptr @CurrentMemoryContext, align 8
  store ptr %4, ptr %3, align 8
  %5 = load ptr, ptr %2, align 8
  store ptr %5, ptr @CurrentMemoryContext, align 8
  %6 = load ptr, ptr %3, align 8
  call void @llvm.lifetime.end.p0(i64 8, ptr %3) #10
  ret ptr %6
}

; Function Attrs: nounwind uwtable
define internal zeroext i1 @get_actual_variable_range(ptr noundef %0, ptr noundef %1, i32 noundef %2, i32 noundef %3, ptr noundef %4, ptr noundef %5) #0 {
  %7 = alloca i1, align 1
  %8 = alloca ptr, align 8
  %9 = alloca ptr, align 8
  %10 = alloca i32, align 4
  %11 = alloca i32, align 4
  %12 = alloca ptr, align 8
  %13 = alloca ptr, align 8
  %14 = alloca i8, align 1
  %15 = alloca ptr, align 8
  %16 = alloca ptr, align 8
  %17 = alloca ptr, align 8
  %18 = alloca i32, align 4
  %19 = alloca %struct.ForEachState, align 8
  %20 = alloca ptr, align 8
  %21 = alloca i32, align 4
  %22 = alloca ptr, align 8
  %23 = alloca ptr, align 8
  %24 = alloca ptr, align 8
  %25 = alloca ptr, align 8
  %26 = alloca ptr, align 8
  %27 = alloca i16, align 2
  %28 = alloca i8, align 1
  %29 = alloca [1 x %struct.ScanKeyData], align 16
  %30 = alloca i32, align 4
  store ptr %0, ptr %8, align 8
  store ptr %1, ptr %9, align 8
  store i32 %2, ptr %10, align 4
  store i32 %3, ptr %11, align 4
  store ptr %4, ptr %12, align 8
  store ptr %5, ptr %13, align 8
  call void @llvm.lifetime.start.p0(i64 1, ptr %14) #10
  store i8 0, ptr %14, align 1
  call void @llvm.lifetime.start.p0(i64 8, ptr %15) #10
  %31 = load ptr, ptr %9, align 8
  %32 = getelementptr inbounds nuw %struct.VariableStatData, ptr %31, i32 0, i32 1
  %33 = load ptr, ptr %32, align 8
  store ptr %33, ptr %15, align 8
  call void @llvm.lifetime.start.p0(i64 8, ptr %16) #10
  call void @llvm.lifetime.start.p0(i64 8, ptr %17) #10
  %34 = load ptr, ptr %15, align 8
  %35 = icmp eq ptr %34, null
  br i1 %35, label %41, label %36

36:                                               ; preds = %6
  %37 = load ptr, ptr %15, align 8
  %38 = getelementptr inbounds nuw %struct.RelOptInfo, ptr %37, i32 0, i32 28
  %39 = load ptr, ptr %38, align 8
  %40 = icmp eq ptr %39, null
  br i1 %40, label %41, label %42

41:                                               ; preds = %36, %6
  store i1 false, ptr %7, align 1
  store i32 1, ptr %18, align 4
  br label %231

42:                                               ; preds = %36
  %43 = load ptr, ptr %8, align 8
  %44 = getelementptr inbounds nuw %struct.PlannerInfo, ptr %43, i32 0, i32 9
  %45 = load ptr, ptr %44, align 8
  %46 = load ptr, ptr %15, align 8
  %47 = getelementptr inbounds nuw %struct.RelOptInfo, ptr %46, i32 0, i32 17
  %48 = load i32, ptr %47, align 8
  %49 = zext i32 %48 to i64
  %50 = getelementptr inbounds nuw ptr, ptr %45, i64 %49
  %51 = load ptr, ptr %50, align 8
  store ptr %51, ptr %16, align 8
  %52 = load ptr, ptr %16, align 8
  %53 = getelementptr inbounds nuw %struct.RangeTblEntry, ptr %52, i32 0, i32 6
  %54 = load i8, ptr %53, align 1
  %55 = sext i8 %54 to i32
  %56 = icmp eq i32 %55, 112
  br i1 %56, label %57, label %58

57:                                               ; preds = %42
  store i1 false, ptr %7, align 1
  store i32 1, ptr %18, align 4
  br label %231

58:                                               ; preds = %42
  call void @llvm.lifetime.start.p0(i64 16, ptr %19) #10
  %59 = getelementptr inbounds nuw %struct.ForEachState, ptr %19, i32 0, i32 0
  %60 = load ptr, ptr %15, align 8
  %61 = getelementptr inbounds nuw %struct.RelOptInfo, ptr %60, i32 0, i32 28
  %62 = load ptr, ptr %61, align 8
  store ptr %62, ptr %59, align 8
  %63 = getelementptr inbounds nuw %struct.ForEachState, ptr %19, i32 0, i32 1
  store i32 0, ptr %63, align 8
  %64 = getelementptr i8, ptr %19, i64 12
  call void @llvm.memset.p0.i64(ptr align 4 %64, i8 0, i64 4, i1 false)
  br label %65

65:                                               ; preds = %223, %58
  %66 = getelementptr inbounds nuw %struct.ForEachState, ptr %19, i32 0, i32 0
  %67 = load ptr, ptr %66, align 8
  %68 = icmp ne ptr %67, null
  br i1 %68, label %69, label %86

69:                                               ; preds = %65
  %70 = getelementptr inbounds nuw %struct.ForEachState, ptr %19, i32 0, i32 1
  %71 = load i32, ptr %70, align 8
  %72 = getelementptr inbounds nuw %struct.ForEachState, ptr %19, i32 0, i32 0
  %73 = load ptr, ptr %72, align 8
  %74 = getelementptr inbounds nuw %struct.List, ptr %73, i32 0, i32 1
  %75 = load i32, ptr %74, align 4
  %76 = icmp slt i32 %71, %75
  br i1 %76, label %77, label %86

77:                                               ; preds = %69
  %78 = getelementptr inbounds nuw %struct.ForEachState, ptr %19, i32 0, i32 0
  %79 = load ptr, ptr %78, align 8
  %80 = getelementptr inbounds nuw %struct.List, ptr %79, i32 0, i32 3
  %81 = load ptr, ptr %80, align 8
  %82 = getelementptr inbounds nuw %struct.ForEachState, ptr %19, i32 0, i32 1
  %83 = load i32, ptr %82, align 8
  %84 = sext i32 %83 to i64
  %85 = getelementptr inbounds %union.ListCell, ptr %81, i64 %84
  store ptr %85, ptr %17, align 8
  br label %87

86:                                               ; preds = %69, %65
  store ptr null, ptr %17, align 8
  br label %87

87:                                               ; preds = %86, %77
  %88 = phi i32 [ 1, %77 ], [ 0, %86 ]
  %89 = icmp ne i32 %88, 0
  br i1 %89, label %91, label %90

90:                                               ; preds = %87
  store i32 2, ptr %18, align 4
  br label %227

91:                                               ; preds = %87
  call void @llvm.lifetime.start.p0(i64 8, ptr %20) #10
  %92 = load ptr, ptr %17, align 8
  %93 = load ptr, ptr %92, align 8
  store ptr %93, ptr %20, align 8
  call void @llvm.lifetime.start.p0(i64 4, ptr %21) #10
  %94 = load ptr, ptr %20, align 8
  %95 = getelementptr inbounds nuw %struct.IndexOptInfo, ptr %94, i32 0, i32 18
  %96 = load i32, ptr %95, align 8
  %97 = icmp ne i32 %96, 403
  br i1 %97, label %98, label %99

98:                                               ; preds = %91
  store i32 4, ptr %18, align 4
  br label %221

99:                                               ; preds = %91
  %100 = load ptr, ptr %20, align 8
  %101 = getelementptr inbounds nuw %struct.IndexOptInfo, ptr %100, i32 0, i32 20
  %102 = load ptr, ptr %101, align 8
  %103 = icmp ne ptr %102, null
  br i1 %103, label %104, label %105

104:                                              ; preds = %99
  store i32 4, ptr %18, align 4
  br label %221

105:                                              ; preds = %99
  %106 = load ptr, ptr %20, align 8
  %107 = getelementptr inbounds nuw %struct.IndexOptInfo, ptr %106, i32 0, i32 27
  %108 = load i8, ptr %107, align 4, !range !4, !noundef !5
  %109 = trunc i8 %108 to i1
  br i1 %109, label %110, label %111

110:                                              ; preds = %105
  store i32 4, ptr %18, align 4
  br label %221

111:                                              ; preds = %105
  %112 = load i32, ptr %11, align 4
  %113 = load ptr, ptr %20, align 8
  %114 = getelementptr inbounds nuw %struct.IndexOptInfo, ptr %113, i32 0, i32 10
  %115 = load ptr, ptr %114, align 8
  %116 = getelementptr inbounds i32, ptr %115, i64 0
  %117 = load i32, ptr %116, align 4
  %118 = icmp ne i32 %112, %117
  br i1 %118, label %119, label %120

119:                                              ; preds = %111
  store i32 4, ptr %18, align 4
  br label %221

120:                                              ; preds = %111
  %121 = load ptr, ptr %9, align 8
  %122 = getelementptr inbounds nuw %struct.VariableStatData, ptr %121, i32 0, i32 0
  %123 = load ptr, ptr %122, align 8
  %124 = load ptr, ptr %20, align 8
  %125 = call zeroext i1 @match_index_to_operand(ptr noundef %123, i32 noundef 0, ptr noundef %124)
  br i1 %125, label %127, label %126

126:                                              ; preds = %120
  store i32 4, ptr %18, align 4
  br label %221

127:                                              ; preds = %120
  %128 = load i32, ptr %10, align 4
  %129 = load ptr, ptr %20, align 8
  %130 = getelementptr inbounds nuw %struct.IndexOptInfo, ptr %129, i32 0, i32 13
  %131 = load ptr, ptr %130, align 8
  %132 = getelementptr inbounds i32, ptr %131, i64 0
  %133 = load i32, ptr %132, align 4
  %134 = call i32 @get_op_opfamily_strategy(i32 noundef %128, i32 noundef %133)
  switch i32 %134, label %155 [
    i32 1, label %135
    i32 5, label %145
  ]

135:                                              ; preds = %127
  %136 = load ptr, ptr %20, align 8
  %137 = getelementptr inbounds nuw %struct.IndexOptInfo, ptr %136, i32 0, i32 14
  %138 = load ptr, ptr %137, align 8
  %139 = getelementptr inbounds i8, ptr %138, i64 0
  %140 = load i8, ptr %139, align 1, !range !4, !noundef !5
  %141 = trunc i8 %140 to i1
  br i1 %141, label %142, label %143

142:                                              ; preds = %135
  store i32 -1, ptr %21, align 4
  br label %144

143:                                              ; preds = %135
  store i32 1, ptr %21, align 4
  br label %144

144:                                              ; preds = %143, %142
  br label %156

145:                                              ; preds = %127
  %146 = load ptr, ptr %20, align 8
  %147 = getelementptr inbounds nuw %struct.IndexOptInfo, ptr %146, i32 0, i32 14
  %148 = load ptr, ptr %147, align 8
  %149 = getelementptr inbounds i8, ptr %148, i64 0
  %150 = load i8, ptr %149, align 1, !range !4, !noundef !5
  %151 = trunc i8 %150 to i1
  br i1 %151, label %152, label %153

152:                                              ; preds = %145
  store i32 1, ptr %21, align 4
  br label %154

153:                                              ; preds = %145
  store i32 -1, ptr %21, align 4
  br label %154

154:                                              ; preds = %153, %152
  br label %156

155:                                              ; preds = %127
  store i32 4, ptr %18, align 4
  br label %221

156:                                              ; preds = %154, %144
  call void @llvm.lifetime.start.p0(i64 8, ptr %22) #10
  call void @llvm.lifetime.start.p0(i64 8, ptr %23) #10
  call void @llvm.lifetime.start.p0(i64 8, ptr %24) #10
  call void @llvm.lifetime.start.p0(i64 8, ptr %25) #10
  call void @llvm.lifetime.start.p0(i64 8, ptr %26) #10
  call void @llvm.lifetime.start.p0(i64 2, ptr %27) #10
  call void @llvm.lifetime.start.p0(i64 1, ptr %28) #10
  call void @llvm.lifetime.start.p0(i64 72, ptr %29) #10
  br label %157

157:                                              ; preds = %156
  br label %158

158:                                              ; preds = %157
  br label %159

159:                                              ; preds = %158
  store i32 1, ptr %30, align 4
  %160 = load ptr, ptr @CurrentMemoryContext, align 8
  %161 = call ptr @AllocSetContextCreateInternal(ptr noundef %160, ptr noundef @.str.16, i64 noundef 0, i64 noundef 8192, i64 noundef 8388608)
  store ptr %161, ptr %22, align 8
  %162 = load ptr, ptr %22, align 8
  %163 = call ptr @MemoryContextSwitchTo(ptr noundef %162)
  store ptr %163, ptr %23, align 8
  %164 = load ptr, ptr %16, align 8
  %165 = getelementptr inbounds nuw %struct.RangeTblEntry, ptr %164, i32 0, i32 4
  %166 = load i32, ptr %165, align 4
  %167 = call ptr @table_open(i32 noundef %166, i32 noundef 0)
  store ptr %167, ptr %24, align 8
  %168 = load ptr, ptr %20, align 8
  %169 = getelementptr inbounds nuw %struct.IndexOptInfo, ptr %168, i32 0, i32 1
  %170 = load i32, ptr %169, align 4
  %171 = call ptr @index_open(i32 noundef %170, i32 noundef 0)
  store ptr %171, ptr %25, align 8
  %172 = load ptr, ptr %24, align 8
  %173 = call ptr @table_slot_create(ptr noundef %172, ptr noundef null)
  store ptr %173, ptr %26, align 8
  %174 = load ptr, ptr %9, align 8
  %175 = getelementptr inbounds nuw %struct.VariableStatData, ptr %174, i32 0, i32 5
  %176 = load i32, ptr %175, align 4
  call void @get_typlenbyval(i32 noundef %176, ptr noundef %27, ptr noundef %28)
  %177 = getelementptr inbounds [1 x %struct.ScanKeyData], ptr %29, i64 0, i64 0
  call void @ScanKeyEntryInitialize(ptr noundef %177, i32 noundef 129, i16 noundef signext 1, i16 noundef zeroext 0, i32 noundef 0, i32 noundef 0, i32 noundef 0, i64 noundef 0)
  %178 = load ptr, ptr %12, align 8
  %179 = icmp ne ptr %178, null
  br i1 %179, label %180, label %193

180:                                              ; preds = %159
  %181 = load ptr, ptr %24, align 8
  %182 = load ptr, ptr %25, align 8
  %183 = load i32, ptr %21, align 4
  %184 = getelementptr inbounds [1 x %struct.ScanKeyData], ptr %29, i64 0, i64 0
  %185 = load i16, ptr %27, align 2
  %186 = load i8, ptr %28, align 1, !range !4, !noundef !5
  %187 = trunc i8 %186 to i1
  %188 = load ptr, ptr %26, align 8
  %189 = load ptr, ptr %23, align 8
  %190 = load ptr, ptr %12, align 8
  %191 = call zeroext i1 @get_actual_variable_endpoint(ptr noundef %181, ptr noundef %182, i32 noundef %183, ptr noundef %184, i16 noundef signext %185, i1 noundef zeroext %187, ptr noundef %188, ptr noundef %189, ptr noundef %190)
  %192 = zext i1 %191 to i8
  store i8 %192, ptr %14, align 1
  br label %194

193:                                              ; preds = %159
  store i8 1, ptr %14, align 1
  br label %194

194:                                              ; preds = %193, %180
  %195 = load ptr, ptr %13, align 8
  %196 = icmp ne ptr %195, null
  br i1 %196, label %197, label %214

197:                                              ; preds = %194
  %198 = load i8, ptr %14, align 1, !range !4, !noundef !5
  %199 = trunc i8 %198 to i1
  br i1 %199, label %200, label %214

200:                                              ; preds = %197
  %201 = load ptr, ptr %24, align 8
  %202 = load ptr, ptr %25, align 8
  %203 = load i32, ptr %21, align 4
  %204 = sub i32 0, %203
  %205 = getelementptr inbounds [1 x %struct.ScanKeyData], ptr %29, i64 0, i64 0
  %206 = load i16, ptr %27, align 2
  %207 = load i8, ptr %28, align 1, !range !4, !noundef !5
  %208 = trunc i8 %207 to i1
  %209 = load ptr, ptr %26, align 8
  %210 = load ptr, ptr %23, align 8
  %211 = load ptr, ptr %13, align 8
  %212 = call zeroext i1 @get_actual_variable_endpoint(ptr noundef %201, ptr noundef %202, i32 noundef %204, ptr noundef %205, i16 noundef signext %206, i1 noundef zeroext %208, ptr noundef %209, ptr noundef %210, ptr noundef %211)
  %213 = zext i1 %212 to i8
  store i8 %213, ptr %14, align 1
  br label %214

214:                                              ; preds = %200, %197, %194
  %215 = load ptr, ptr %26, align 8
  call void @ExecDropSingleTupleTableSlot(ptr noundef %215)
  %216 = load ptr, ptr %25, align 8
  call void @index_close(ptr noundef %216, i32 noundef 0)
  %217 = load ptr, ptr %24, align 8
  call void @table_close(ptr noundef %217, i32 noundef 0)
  %218 = load ptr, ptr %23, align 8
  %219 = call ptr @MemoryContextSwitchTo(ptr noundef %218)
  %220 = load ptr, ptr %22, align 8
  call void @MemoryContextDelete(ptr noundef %220)
  store i32 2, ptr %18, align 4
  call void @llvm.lifetime.end.p0(i64 72, ptr %29) #10
  call void @llvm.lifetime.end.p0(i64 1, ptr %28) #10
  call void @llvm.lifetime.end.p0(i64 2, ptr %27) #10
  call void @llvm.lifetime.end.p0(i64 8, ptr %26) #10
  call void @llvm.lifetime.end.p0(i64 8, ptr %25) #10
  call void @llvm.lifetime.end.p0(i64 8, ptr %24) #10
  call void @llvm.lifetime.end.p0(i64 8, ptr %23) #10
  call void @llvm.lifetime.end.p0(i64 8, ptr %22) #10
  br label %221

221:                                              ; preds = %214, %155, %126, %119, %110, %104, %98
  call void @llvm.lifetime.end.p0(i64 4, ptr %21) #10
  call void @llvm.lifetime.end.p0(i64 8, ptr %20) #10
  %222 = load i32, ptr %18, align 4
  switch i32 %222, label %227 [
    i32 4, label %223
  ]

223:                                              ; preds = %221
  %224 = getelementptr inbounds nuw %struct.ForEachState, ptr %19, i32 0, i32 1
  %225 = load i32, ptr %224, align 8
  %226 = add i32 %225, 1
  store i32 %226, ptr %224, align 8
  br label %65, !llvm.loop !13

227:                                              ; preds = %221, %90
  call void @llvm.lifetime.end.p0(i64 16, ptr %19) #10
  br label %228

228:                                              ; preds = %227
  %229 = load i8, ptr %14, align 1, !range !4, !noundef !5
  %230 = trunc i8 %229 to i1
  store i1 %230, ptr %7, align 1
  store i32 1, ptr %18, align 4
  br label %231

231:                                              ; preds = %228, %57, %41
  call void @llvm.lifetime.end.p0(i64 8, ptr %17) #10
  call void @llvm.lifetime.end.p0(i64 8, ptr %16) #10
  call void @llvm.lifetime.end.p0(i64 8, ptr %15) #10
  call void @llvm.lifetime.end.p0(i64 1, ptr %14) #10
  %232 = load i1, ptr %7, align 1
  ret i1 %232
}