; Function Attrs: nounwind uwtable
define internal fastcc zeroext i1 @get_actual_variable_range(ptr noundef readonly captures(none) %0, ptr noundef readonly captures(none) %1, i32 noundef %2, i32 noundef %3, ptr noundef writeonly captures(address_is_null) %4, ptr noundef writeonly captures(address_is_null) %5) unnamed_addr #0 {
  %7 = alloca i16, align 2
  %8 = alloca i8, align 1
  %9 = alloca [1 x %struct.ScanKeyData], align 16
  %10 = getelementptr inbounds nuw i8, ptr %1, i64 8
  %11 = load ptr, ptr %10, align 8
  %12 = icmp eq ptr %11, null
  br i1 %12, label %.loopexit, label %13

13:                                               ; preds = %6
  %14 = getelementptr inbounds nuw i8, ptr %11, i64 176
  %15 = load ptr, ptr %14, align 8
  %16 = icmp eq ptr %15, null
  br i1 %16, label %.loopexit, label %17

17:                                               ; preds = %13
  %18 = getelementptr inbounds nuw i8, ptr %0, i64 72
  %19 = load ptr, ptr %18, align 8
  %20 = getelementptr inbounds nuw i8, ptr %11, i64 112
  %21 = load i32, ptr %20, align 8
  %22 = zext i32 %21 to i64
  %23 = getelementptr inbounds nuw ptr, ptr %19, i64 %22
  %24 = load ptr, ptr %23, align 8
  %25 = getelementptr inbounds nuw i8, ptr %24, i64 33
  %26 = load i8, ptr %25, align 1
  %27 = icmp eq i8 %26, 112
  br i1 %27, label %.loopexit, label %.preheader

.preheader:                                       ; preds = %17
  %28 = getelementptr inbounds nuw i8, ptr %15, i64 4
  %29 = load i32, ptr %28, align 4
  %.not71 = icmp sgt i32 %29, 0
  br i1 %.not71, label %.lr.ph, label %.loopexit

.lr.ph:                                           ; preds = %.preheader
  %30 = getelementptr inbounds nuw i8, ptr %15, i64 16
  br label %31

31:                                               ; preds = %.lr.ph, %97
  %indvars.iv = phi i64 [ 0, %.lr.ph ], [ %indvars.iv.next, %97 ]
  %32 = load ptr, ptr %30, align 8
  %33 = getelementptr inbounds nuw %union.ListCell, ptr %32, i64 %indvars.iv
  %34 = load ptr, ptr %33, align 8
  %35 = getelementptr inbounds nuw i8, ptr %34, i64 128
  %36 = load i32, ptr %35, align 8
  %.not58 = icmp eq i32 %36, 403
  br i1 %.not58, label %37, label %97

37:                                               ; preds = %31
  %38 = getelementptr inbounds nuw i8, ptr %34, i64 144
  %39 = load ptr, ptr %38, align 8
  %.not59 = icmp eq ptr %39, null
  br i1 %.not59, label %40, label %97

40:                                               ; preds = %37
  %41 = getelementptr inbounds nuw i8, ptr %34, i64 172
  %42 = load i8, ptr %41, align 4, !range !4, !noundef !5
  %43 = trunc nuw i8 %42 to i1
  br i1 %43, label %97, label %44

44:                                               ; preds = %40
  %45 = getelementptr inbounds nuw i8, ptr %34, i64 64
  %46 = load ptr, ptr %45, align 8
  %47 = load i32, ptr %46, align 4
  %.not60 = icmp eq i32 %3, %47
  br i1 %.not60, label %48, label %97

48:                                               ; preds = %44
  %49 = load ptr, ptr %1, align 8
  %50 = tail call zeroext i1 @match_index_to_operand(ptr noundef %49, i32 noundef 0, ptr noundef nonnull %34) #12
  br i1 %50, label %51, label %97

51:                                               ; preds = %48
  %52 = getelementptr inbounds nuw i8, ptr %34, i64 88
  %53 = load ptr, ptr %52, align 8
  %54 = load i32, ptr %53, align 4
  %55 = tail call i32 @get_op_opfamily_strategy(i32 noundef %2, i32 noundef %54) #12
  switch i32 %55, label %97 [
    i32 1, label %56
    i32 5, label %61
  ]

56:                                               ; preds = %51
  %57 = getelementptr inbounds nuw i8, ptr %34, i64 96
  %58 = load ptr, ptr %57, align 8
  %59 = load i8, ptr %58, align 1, !range !4, !noundef !5
  %60 = trunc nuw i8 %59 to i1
  %. = select i1 %60, i32 -1, i32 1
  br label %66

61:                                               ; preds = %51
  %62 = getelementptr inbounds nuw i8, ptr %34, i64 96
  %63 = load ptr, ptr %62, align 8
  %64 = load i8, ptr %63, align 1, !range !4, !noundef !5
  %65 = trunc nuw i8 %64 to i1
  %.63 = select i1 %65, i32 1, i32 -1
  br label %66

66:                                               ; preds = %61, %56
  %.053 = phi i32 [ %., %56 ], [ %.63, %61 ]
  call void @llvm.lifetime.start.p0(i64 2, ptr nonnull %7) #12
  call void @llvm.lifetime.start.p0(i64 1, ptr nonnull %8) #12
  call void @llvm.lifetime.start.p0(i64 72, ptr nonnull %9) #12
  %67 = load ptr, ptr @CurrentMemoryContext, align 8
  %68 = tail call ptr @AllocSetContextCreateInternal(ptr noundef %67, ptr noundef nonnull @.str.16, i64 noundef 0, i64 noundef 8192, i64 noundef 8388608) #12
  %69 = load ptr, ptr @CurrentMemoryContext, align 8
  store ptr %68, ptr @CurrentMemoryContext, align 8
  %70 = getelementptr inbounds nuw i8, ptr %24, i64 28
  %71 = load i32, ptr %70, align 4
  %72 = tail call ptr @table_open(i32 noundef %71, i32 noundef 0) #12
  %73 = getelementptr inbounds nuw i8, ptr %34, i64 4
  %74 = load i32, ptr %73, align 4
  %75 = tail call ptr @index_open(i32 noundef %74, i32 noundef 0) #12
  %76 = tail call ptr @table_slot_create(ptr noundef %72, ptr noundef null) #12
  %77 = getelementptr inbounds nuw i8, ptr %1, i64 36
  %78 = load i32, ptr %77, align 4
  call void @get_typlenbyval(i32 noundef %78, ptr noundef nonnull %7, ptr noundef nonnull %8) #12
  call void @ScanKeyEntryInitialize(ptr noundef nonnull %9, i32 noundef 129, i16 noundef signext 1, i16 noundef zeroext 0, i32 noundef 0, i32 noundef 0, i32 noundef 0, i64 noundef 0) #12
  %.not61 = icmp eq ptr %4, null
  br i1 %.not61, label %85, label %79

79:                                               ; preds = %66
  %80 = load i16, ptr %7, align 2
  %81 = load i8, ptr %8, align 1, !range !4, !noundef !5
  %82 = trunc nuw i8 %81 to i1
  %83 = call fastcc zeroext i1 @get_actual_variable_endpoint(ptr noundef %72, ptr noundef %75, i32 noundef %.053, ptr noundef %9, i16 noundef signext %80, i1 noundef zeroext %82, ptr noundef %76, ptr noundef %69, ptr noundef %4)
  %84 = zext i1 %83 to i8
  br label %85

85:                                               ; preds = %66, %79
  %.3 = phi i8 [ %84, %79 ], [ 1, %66 ]
  %.not62 = icmp eq ptr %5, null
  br i1 %.not62, label %95, label %86

86:                                               ; preds = %85
  %87 = trunc nuw i8 %.3 to i1
  br i1 %87, label %88, label %95

88:                                               ; preds = %86
  %89 = sub nsw i32 0, %.053
  %90 = load i16, ptr %7, align 2
  %91 = load i8, ptr %8, align 1, !range !4, !noundef !5
  %92 = trunc nuw i8 %91 to i1
  %93 = call fastcc zeroext i1 @get_actual_variable_endpoint(ptr noundef %72, ptr noundef %75, i32 noundef %89, ptr noundef %9, i16 noundef signext %90, i1 noundef zeroext %92, ptr noundef %76, ptr noundef %69, ptr noundef %5)
  %94 = zext i1 %93 to i8
  br label %95

95:                                               ; preds = %85, %86, %88
  %.4 = phi i8 [ %94, %88 ], [ 0, %86 ], [ %.3, %85 ]
  call void @ExecDropSingleTupleTableSlot(ptr noundef %76) #12
  call void @index_close(ptr noundef %75, i32 noundef 0) #12
  call void @table_close(ptr noundef %72, i32 noundef 0) #12
  store ptr %69, ptr @CurrentMemoryContext, align 8
  call void @MemoryContextDelete(ptr noundef %68) #12
  call void @llvm.lifetime.end.p0(i64 72, ptr nonnull %9) #12
  call void @llvm.lifetime.end.p0(i64 1, ptr nonnull %8) #12
  call void @llvm.lifetime.end.p0(i64 2, ptr nonnull %7) #12
  %96 = trunc nuw i8 %.4 to i1
  br label %.loopexit

97:                                               ; preds = %31, %37, %40, %44, %48, %51
  %indvars.iv.next = add nuw nsw i64 %indvars.iv, 1
  %98 = load i32, ptr %28, align 4
  %99 = sext i32 %98 to i64
  %.not = icmp slt i64 %indvars.iv.next, %99
  br i1 %.not, label %31, label %.loopexit, !llvm.loop !13

.loopexit:                                        ; preds = %97, %.preheader, %95, %17, %6, %13
  %.0 = phi i1 [ false, %13 ], [ false, %6 ], [ false, %17 ], [ %96, %95 ], [ false, %.preheader ], [ false, %97 ]
  ret i1 %.0
}